target datalayout = "e-m:e-p270:32:32-p271:32:32-p272:64:64-i64:64-i128:128-f80:128-n8:16:32:64-S128"
target triple = "x86_64-pc-linux-gnu"

%"class.cmUVJobServerClient::Impl" = type { ptr, ptr, %"struct.cm::uv_idle_ptr", %"class.std::function", %"class.std::function.0", i32, i32 }
%"struct.cm::uv_idle_ptr" = type { %"class.cm::uv_handle_ptr_" }
%"class.cm::uv_handle_ptr_" = type { %"class.cm::uv_handle_ptr_base_" }
%"class.cm::uv_handle_ptr_base_" = type { %"class.std::shared_ptr" }
%"class.std::shared_ptr" = type { %"class.std::__shared_ptr" }
%"class.std::__shared_ptr" = type { ptr, %"class.std::__shared_count" }
%"class.std::__shared_count" = type { ptr }
%"class.std::function" = type { %"class.std::_Function_base", ptr }
%"class.std::_Function_base" = type { %"union.std::_Any_data", ptr }
%"union.std::_Any_data" = type { %"union.std::_Nocopy_types" }
%"union.std::_Nocopy_types" = type { { i64, i64 } }
%"class.std::function.0" = type { %"class.std::_Function_base", ptr }
%"struct.cm::uv_pipe_ptr" = type { %"class.cm::uv_handle_ptr_.17" }
%"class.cm::uv_handle_ptr_.17" = type { %"class.cm::uv_handle_ptr_base_.18" }
%"class.cm::uv_handle_ptr_base_.18" = type { %"class.std::shared_ptr.19" }
%"class.std::shared_ptr.19" = type { %"class.std::__shared_ptr.20" }
%"class.std::__shared_ptr.20" = type { ptr, %"class.std::__shared_count" }

; Function Attrs: mustprogress nounwind uwtable
define linkonce_odr dso_local void @_ZN2cm14uv_handle_ptr_I9uv_pipe_sED2Ev(ptr noundef nonnull align 8 dereferenceable(16) %0) unnamed_addr #5 comdat align 2 {
  %2 = alloca ptr, align 8
  store ptr %0, ptr %2, align 8
  %3 = load ptr, ptr %2, align 8
  call void @_ZN2cm19uv_handle_ptr_base_I9uv_pipe_sED2Ev(ptr noundef nonnull align 8 dereferenceable(16) %3) #3
  ret void
}

; Function Attrs: mustprogress uwtable
define linkonce_odr dso_local void @_ZN2cm14uv_handle_ptr_I9uv_pipe_sEC2Ev(ptr noundef nonnull align 8 dereferenceable(16) %0) unnamed_addr #4 comdat align 2 {
  %2 = alloca ptr, align 8
  store ptr %0, ptr %2, align 8
  %3 = load ptr, ptr %2, align 8
  call void @_ZN2cm19uv_handle_ptr_base_I9uv_pipe_sEC2Ev(ptr noundef nonnull align 8 dereferenceable(16) %3)
  ret void
}

; Function Attrs: mustprogress nounwind uwtable
define linkonce_odr dso_local void @_ZN2cm11uv_pipe_ptrD2Ev(ptr noundef nonnull align 8 dereferenceable(16) %0) unnamed_addr #5 comdat align 2 {
  %2 = alloca ptr, align 8
  store ptr %0, ptr %2, align 8
  %3 = load ptr, ptr %2, align 8
  call void @_ZN2cm14uv_handle_ptr_I9uv_pipe_sED2Ev(ptr noundef nonnull align 8 dereferenceable(16) %3) #3
  ret void
}

; Function Attrs: mustprogress uwtable
define linkonce_odr dso_local void @_ZN2cm11uv_pipe_ptrC2Ev(ptr noundef nonnull align 8 dereferenceable(16) %0) unnamed_addr #4 comdat align 2 {
  %2 = alloca ptr, align 8
  store ptr %0, ptr %2, align 8
  %3 = load ptr, ptr %2, align 8
  call void @_ZN2cm14uv_handle_ptr_I9uv_pipe_sEC2Ev(ptr noundef nonnull align 8 dereferenceable(16) %3)
  ret void
}

; Function Attrs: mustprogress uwtable
define internal void @_ZN12_GLOBAL__N_19ImplPosix6OpenFDEi(ptr dead_on_unwind noalias writable sret(%"struct.cm::uv_pipe_ptr") align 8 %0, ptr noundef nonnull align 8 dereferenceable(178) %1, i32 noundef %2) #4 align 2 personality ptr @__gxx_personality_v0 {
  %4 = alloca ptr, align 8
  %5 = alloca ptr, align 8
  %6 = alloca i32, align 4
  %7 = alloca i1, align 1
  %8 = alloca i32, align 4
  %9 = alloca i32, align 4
  %10 = alloca ptr, align 8
  %11 = alloca i32, align 4
  store ptr %0, ptr %4, align 8
  store ptr %1, ptr %5, align 8
  store i32 %2, ptr %6, align 4
  %12 = load ptr, ptr %5, align 8
  store i1 false, ptr %7, align 1
  call void @_ZN2cm11uv_pipe_ptrC2Ev(ptr noundef nonnull align 8 dereferenceable(16) %0)
  %13 = load i32, ptr %6, align 4
  %14 = call i32 @dup(i32 noundef %13) #3
  store i32 %14, ptr %8, align 4
  %15 = load i32, ptr %8, align 4
  %16 = icmp slt i32 %15, 0
  br i1 %16, label %17, label %18

17:                                               ; preds = %3
  store i1 true, ptr %7, align 1
  store i32 1, ptr %9, align 4
  br label %47

18:                                               ; preds = %3
  %19 = load i32, ptr %8, align 4
  %20 = invoke i32 (i32, i32, ...) @fcntl(i32 noundef %19, i32 noundef 2, i32 noundef 1)
          to label %21 unwind label %27

21:                                               ; preds = %18
  %22 = icmp eq i32 %20, -1
  br i1 %22, label %23, label %31

23:                                               ; preds = %21
  %24 = load i32, ptr %8, align 4
  %25 = invoke i32 @close(i32 noundef %24)
          to label %26 unwind label %27

26:                                               ; preds = %23
  store i1 true, ptr %7, align 1
  store i32 1, ptr %9, align 4
  br label %47

27:                                               ; preds = %42, %37, %35, %31, %23, %18
  %28 = landingpad { ptr, i32 }
          cleanup
  %29 = extractvalue { ptr, i32 } %28, 0
  store ptr %29, ptr %10, align 8
  %30 = extractvalue { ptr, i32 } %28, 1
  store i32 %30, ptr %11, align 4
  call void @_ZN2cm11uv_pipe_ptrD2Ev(ptr noundef nonnull align 8 dereferenceable(16) %0) #3
  br label %51

31:                                               ; preds = %21
  %32 = getelementptr inbounds %"class.cmUVJobServerClient::Impl", ptr %12, i32 0, i32 1
  %33 = load ptr, ptr %32, align 8
  %34 = invoke noundef i32 @_ZN2cm11uv_pipe_ptr4initER9uv_loop_siPv(ptr noundef nonnull align 8 dereferenceable(16) %0, ptr noundef nonnull align 8 dereferenceable(848) %33, i32 noundef 0, ptr noundef %12)
          to label %35 unwind label %27

35:                                               ; preds = %31
  %36 = invoke noundef ptr @_ZNK2cm14uv_handle_ptr_I9uv_pipe_sEcvPS1_Ev(ptr noundef nonnull align 8 dereferenceable(16) %0)
          to label %37 unwind label %27

37:                                               ; preds = %35
  %38 = load i32, ptr %8, align 4
  %39 = invoke i32 @uv_pipe_open(ptr noundef %36, i32 noundef %38)
          to label %40 unwind label %27

40:                                               ; preds = %37
  %41 = icmp slt i32 %39, 0
  br i1 %41, label %42, label %46

42:                                               ; preds = %40
  %43 = load i32, ptr %8, align 4
  %44 = invoke i32 @close(i32 noundef %43)
          to label %45 unwind label %27

45:                                               ; preds = %42
  br label %46

46:                                               ; preds = %45, %40
  store i1 true, ptr %7, align 1
  store i32 1, ptr %9, align 4
  br label %47

47:                                               ; preds = %46, %26, %17
  %48 = load i1, ptr %7, align 1
  br i1 %48, label %50, label %49

49:                                               ; preds = %47
  call void @_ZN2cm11uv_pipe_ptrD2Ev(ptr noundef nonnull align 8 dereferenceable(16) %0) #3
  br label %50

50:                                               ; preds = %49, %47
  ret void

51:                                               ; preds = %27
  %52 = load ptr, ptr %10, align 8
  %53 = load i32, ptr %11, align 4
  %54 = insertvalue { ptr, i32 } poison, ptr %52, 0
  %55 = insertvalue { ptr, i32 } %54, i32 %53, 1
  resume { ptr, i32 } %55
}