; Function Attrs: mustprogress uwtable
define internal fastcc void @_ZN12_GLOBAL__N_19ImplPosix6OpenFDEi(ptr dead_on_unwind noalias nonnull writable align 8 %0, ptr noundef nonnull align 8 dereferenceable(178) %1, i32 noundef %2) unnamed_addr #3 align 2 personality ptr @__gxx_personality_v0 {
  tail call void @_ZN2cm19uv_handle_ptr_base_I9uv_pipe_sEC2Ev(ptr noundef nonnull align 8 dereferenceable(16) %0)
  %4 = tail call i32 @dup(i32 noundef %2) #24
  %5 = icmp slt i32 %4, 0
  br i1 %5, label %23, label %6

6:                                                ; preds = %3
  %7 = invoke i32 (i32, i32, ...) @fcntl(i32 noundef %4, i32 noundef 2, i32 noundef 1)
          to label %8 unwind label %10

8:                                                ; preds = %6
  %9 = icmp eq i32 %7, -1
  br i1 %9, label %.invoke, label %12

10:                                               ; preds = %.invoke, %18, %16, %12, %6
  %11 = landingpad { ptr, i32 }
          cleanup
  tail call void @_ZN2cm19uv_handle_ptr_base_I9uv_pipe_sED2Ev(ptr noundef nonnull align 8 dereferenceable(16) %0) #24
  resume { ptr, i32 } %11

12:                                               ; preds = %8
  %13 = getelementptr inbounds i8, ptr %1, i64 8
  %14 = load ptr, ptr %13, align 8
  %15 = invoke noundef i32 @_ZN2cm11uv_pipe_ptr4initER9uv_loop_siPv(ptr noundef nonnull align 8 dereferenceable(16) %0, ptr noundef nonnull align 8 dereferenceable(848) %14, i32 noundef 0, ptr noundef nonnull %1)
          to label %16 unwind label %10

16:                                               ; preds = %12
  %17 = invoke noundef ptr @_ZNK2cm14uv_handle_ptr_I9uv_pipe_sEcvPS1_Ev(ptr noundef nonnull align 8 dereferenceable(16) %0)
          to label %18 unwind label %10

18:                                               ; preds = %16
  %19 = invoke i32 @uv_pipe_open(ptr noundef %17, i32 noundef %4)
          to label %20 unwind label %10

20:                                               ; preds = %18
  %21 = icmp slt i32 %19, 0
  br i1 %21, label %.invoke, label %23

.invoke:                                          ; preds = %8, %20
  %22 = invoke i32 @close(i32 noundef %4)
          to label %23 unwind label %10

23:                                               ; preds = %.invoke, %3, %20
  ret void
}